target datalayout = "e-m:e-p270:32:32-p271:32:32-p272:64:64-i64:64-i128:128-f80:128-n8:16:32:64-S128"
target triple = "x86_64-pc-linux-gnu"

%struct.__va_list_tag = type { i32, i32, ptr, ptr }

; Function Attrs: mustprogress uwtable
define hidden void @_ZN6cvtest2TS6printfEiPKcz(ptr noundef nonnull align 8 dereferenceable(280) %0, i32 noundef %1, ptr noundef %2, ...) unnamed_addr #6 align 2 {
  %4 = alloca ptr, align 8
  %5 = alloca i32, align 4
  %6 = alloca ptr, align 8
  %7 = alloca [1 x %struct.__va_list_tag], align 16
  store ptr %0, ptr %4, align 8, !tbaa !63
  store i32 %1, ptr %5, align 4, !tbaa !8
  store ptr %2, ptr %6, align 8, !tbaa !25
  %8 = load ptr, ptr %4, align 8
  %9 = load i32, ptr %5, align 4, !tbaa !8
  %10 = icmp ne i32 %9, 0
  br i1 %10, label %11, label %20

11:                                               ; preds = %3
  call void @llvm.lifetime.start.p0(i64 24, ptr %7) #3
  %12 = getelementptr inbounds [1 x %struct.__va_list_tag], ptr %7, i64 0, i64 0
  call void @llvm.va_start.p0(ptr %12)
  %13 = load i32, ptr %5, align 4, !tbaa !8
  %14 = load ptr, ptr %6, align 8, !tbaa !25
  %15 = getelementptr inbounds [1 x %struct.__va_list_tag], ptr %7, i64 0, i64 0
  %16 = load ptr, ptr %8, align 8, !tbaa !17
  %17 = getelementptr inbounds ptr, ptr %16, i64 4
  %18 = load ptr, ptr %17, align 8
  call void %18(ptr noundef nonnull align 8 dereferenceable(280) %8, i32 noundef %13, ptr noundef %14, ptr noundef %15)
  %19 = getelementptr inbounds [1 x %struct.__va_list_tag], ptr %7, i64 0, i64 0
  call void @llvm.va_end.p0(ptr %19)
  call void @llvm.lifetime.end.p0(i64 24, ptr %7) #3
  br label %20

20:                                               ; preds = %11, %3
  ret void
}