; Function Attrs: mustprogress uwtable
define hidden void @_ZN6cvtest2TS6printfEiPKcz(ptr noundef nonnull align 8 dereferenceable(280) %0, i32 noundef %1, ptr noundef %2, ...) unnamed_addr #4 align 2 {
  %4 = alloca [1 x %struct.__va_list_tag], align 16
  %.not = icmp eq i32 %1, 0
  br i1 %.not, label %9, label %5

5:                                                ; preds = %3
  call void @llvm.lifetime.start.p0(i64 24, ptr nonnull %4) #41
  call void @llvm.va_start.p0(ptr nonnull %4)
  %6 = load ptr, ptr %0, align 8, !tbaa !3
  %7 = getelementptr inbounds nuw i8, ptr %6, i64 32
  %8 = load ptr, ptr %7, align 8
  call void %8(ptr noundef nonnull align 8 dereferenceable(280) %0, i32 noundef %1, ptr noundef %2, ptr noundef nonnull %4)
  call void @llvm.va_end.p0(ptr nonnull %4)
  call void @llvm.lifetime.end.p0(i64 24, ptr nonnull %4) #41
  br label %9

9:                                                ; preds = %5, %3
  ret void
}